target datalayout = "e-m:e-p270:32:32-p271:32:32-p272:64:64-i64:64-i128:128-f80:128-n8:16:32:64-S128"
target triple = "x86_64-unknown-linux-gnu"

%"class.std::ios_base::Init" = type { i8 }
%"class.std::basic_ostream" = type { ptr, %"class.std::basic_ios" }
%"class.std::basic_ios" = type { %"class.std::ios_base", ptr, i8, i8, ptr, ptr, ptr, ptr }
%"class.std::ios_base" = type { ptr, i64, i64, i32, i32, i32, ptr, %"struct.std::ios_base::_Words", [8 x %"struct.std::ios_base::_Words"], i32, ptr, %"class.std::locale" }
%"struct.std::ios_base::_Words" = type { ptr, i64 }
%"class.std::locale" = type { ptr }
%struct.timespec = type { i64, i64 }
%struct.timeval = type { i64, i64 }

@_ZStL8__ioinit = internal global %"class.std::ios_base::Init" zeroinitializer, align 1
@__dso_handle = external hidden global i8
@_ZSt4cerr = external global %"class.std::basic_ostream", align 8
@.str = private unnamed_addr constant [59 x i8] c"Semaphore::wait(ms): Unable to get time with gettimeofday!\00", align 1
@llvm.global_ctors = appending global [1 x { i32, ptr, ptr }] [{ i32, ptr, ptr } { i32 65535, ptr @_GLOBAL__sub_I_semaphore.cpp, ptr null }]

@_ZN9SemaphoreC1Ei = dso_local unnamed_addr alias void (ptr, i32), ptr @_ZN9SemaphoreC2Ei
@_ZN9SemaphoreD1Ev = dso_local unnamed_addr alias void (ptr), ptr @_ZN9SemaphoreD2Ev

declare void @_ZNSt8ios_base4InitC1Ev(ptr noundef nonnull align 1 dereferenceable(1)) unnamed_addr #0

; Function Attrs: nounwind
declare void @_ZNSt8ios_base4InitD1Ev(ptr noundef nonnull align 1 dereferenceable(1)) unnamed_addr #1

; Function Attrs: nofree nounwind
declare i32 @__cxa_atexit(ptr, ptr, ptr) local_unnamed_addr #2

; Function Attrs: mustprogress nounwind uwtable
define dso_local void @_ZN9SemaphoreC2Ei(ptr noundef nonnull align 8 dereferenceable(32) %this, i32 noundef %val) unnamed_addr #3 align 2 {
entry:
  %call = tail call i32 @sem_init(ptr noundef nonnull %this, i32 noundef 0, i32 noundef %val) #10
  ret void
}

; Function Attrs: nocallback nofree nosync nounwind willreturn memory(argmem: readwrite)
declare void @llvm.lifetime.start.p0(i64 immarg, ptr nocapture) #4

; Function Attrs: nounwind
declare i32 @sem_init(ptr noundef, i32 noundef, i32 noundef) local_unnamed_addr #1

; Function Attrs: nocallback nofree nosync nounwind willreturn memory(argmem: readwrite)
declare void @llvm.lifetime.end.p0(i64 immarg, ptr nocapture) #4

; Function Attrs: mustprogress nounwind uwtable
define dso_local void @_ZN9SemaphoreD2Ev(ptr noundef nonnull align 8 dereferenceable(32) %this) unnamed_addr #3 align 2 {
entry:
  %call = tail call i32 @sem_destroy(ptr noundef nonnull %this) #10
  ret void
}

; Function Attrs: nounwind
declare i32 @sem_destroy(ptr noundef) local_unnamed_addr #1

; Function Attrs: mustprogress nounwind uwtable
define dso_local void @_ZN9Semaphore4postEj(ptr noundef nonnull align 8 dereferenceable(32) %this, i32 noundef %num) local_unnamed_addr #3 align 2 {
entry:
  %cmp3.not = icmp eq i32 %num, 0
  br i1 %cmp3.not, label %for.cond.cleanup, label %for.body

for.cond.cleanup:                                 ; preds = %for.body, %entry
  ret void

for.body:                                         ; preds = %for.body, %entry
  %i.04 = phi i32 [ %inc, %for.body ], [ 0, %entry ]
  %call = tail call i32 @sem_post(ptr noundef nonnull %this) #10
  %inc = add nuw i32 %i.04, 1
  %exitcond.not = icmp eq i32 %inc, %num
  br i1 %exitcond.not, label %for.cond.cleanup, label %for.body, !llvm.loop !4
}

; Function Attrs: nounwind
declare i32 @sem_post(ptr noundef) local_unnamed_addr #1

; Function Attrs: mustprogress uwtable
define dso_local void @_ZN9Semaphore4waitEv(ptr noundef nonnull align 8 dereferenceable(32) %this) local_unnamed_addr #5 align 2 {
entry:
  %call = tail call i32 @sem_wait(ptr noundef nonnull %this)
  ret void
}

declare i32 @sem_wait(ptr noundef) local_unnamed_addr #0

; Function Attrs: mustprogress uwtable
define dso_local noundef zeroext i1 @_ZN9Semaphore4waitEj(ptr noundef nonnull align 8 dereferenceable(32) %this, i32 noundef %time_ms) local_unnamed_addr #5 align 2 {
entry:
  %wait_time = alloca %struct.timespec, align 8
  %now = alloca %struct.timeval, align 8
  %cmp.not = icmp eq i32 %time_ms, 0
  br i1 %cmp.not, label %if.else, label %if.then

if.then:                                          ; preds = %entry
  call void @llvm.lifetime.start.p0(i64 16, ptr nonnull %wait_time) #10
  call void @llvm.lifetime.start.p0(i64 16, ptr nonnull %now) #10
  %call = call i32 @gettimeofday(ptr noundef nonnull %now, ptr noundef null) #10
  %cmp2 = icmp eq i32 %call, -1
  br i1 %cmp2, label %if.then3, label %if.end

if.then3:                                         ; preds = %if.then
  %call4 = tail call noundef nonnull align 8 dereferenceable(8) ptr @_ZStlsISt11char_traitsIcEERSt13basic_ostreamIcT_ES5_PKc(ptr noundef nonnull align 8 dereferenceable(8) @_ZSt4cerr, ptr noundef nonnull @.str)
  %call.i = tail call noundef nonnull align 8 dereferenceable(8) ptr @_ZSt4endlIcSt11char_traitsIcEERSt13basic_ostreamIT_T0_ES6_(ptr noundef nonnull align 8 dereferenceable(8) %call4)
  tail call void @abort() #11
  unreachable

if.end:                                           ; preds = %if.then
  %rem = urem i32 %time_ms, 1000
  %mul6 = mul nuw nsw i32 %rem, 1000000
  %conv = zext nneg i32 %mul6 to i64
  %tv_usec = getelementptr inbounds i8, ptr %now, i64 8
  %0 = load i64, ptr %tv_usec, align 8, !tbaa !6
  %mul7 = mul nsw i64 %0, 1000
  %add = add nsw i64 %mul7, %conv
  %tv_nsec = getelementptr inbounds i8, ptr %wait_time, i64 8
  %div = udiv i32 %time_ms, 1000
  %conv8 = zext nneg i32 %div to i64
  %div10 = sdiv i64 %add, 1000000000
  %1 = load i64, ptr %now, align 8, !tbaa !11
  %add11 = add i64 %1, %conv8
  %add12 = add i64 %add11, %div10
  store i64 %add12, ptr %wait_time, align 8, !tbaa !12
  %rem15 = srem i64 %add, 1000000000
  store i64 %rem15, ptr %tv_nsec, align 8, !tbaa !14
  %call16 = call i32 @sem_timedwait(ptr noundef nonnull %this, ptr noundef nonnull %wait_time)
  call void @llvm.lifetime.end.p0(i64 16, ptr nonnull %now) #10
  call void @llvm.lifetime.end.p0(i64 16, ptr nonnull %wait_time) #10
  br label %if.end19

if.else:                                          ; preds = %entry
  %call18 = tail call i32 @sem_trywait(ptr noundef nonnull %this) #10
  br label %if.end19

if.end19:                                         ; preds = %if.else, %if.end
  %ret.0 = phi i32 [ %call16, %if.end ], [ %call18, %if.else ]
  %tobool.not = icmp eq i32 %ret.0, 0
  ret i1 %tobool.not
}

; Function Attrs: nofree nounwind
declare noundef i32 @gettimeofday(ptr nocapture noundef, ptr nocapture noundef) local_unnamed_addr #6

; Function Attrs: inlinehint mustprogress uwtable
declare noundef nonnull align 8 dereferenceable(8) ptr @_ZStlsISt11char_traitsIcEERSt13basic_ostreamIcT_ES5_PKc(ptr noundef nonnull align 8 dereferenceable(8), ptr noundef) local_unnamed_addr #7

; Function Attrs: inlinehint mustprogress uwtable
declare noundef nonnull align 8 dereferenceable(8) ptr @_ZSt4endlIcSt11char_traitsIcEERSt13basic_ostreamIT_T0_ES6_(ptr noundef nonnull align 8 dereferenceable(8)) local_unnamed_addr #7

; Function Attrs: noreturn nounwind
declare void @abort() local_unnamed_addr #8

declare i32 @sem_timedwait(ptr noundef, ptr noundef) local_unnamed_addr #0

; Function Attrs: nounwind
declare i32 @sem_trywait(ptr noundef) local_unnamed_addr #1

; Function Attrs: uwtable
define internal void @_GLOBAL__sub_I_semaphore.cpp() #9 section ".text.startup" {
entry:
  tail call void @_ZNSt8ios_base4InitC1Ev(ptr noundef nonnull align 1 dereferenceable(1) @_ZStL8__ioinit)
  %0 = tail call i32 @__cxa_atexit(ptr nonnull @_ZNSt8ios_base4InitD1Ev, ptr nonnull @_ZStL8__ioinit, ptr nonnull @__dso_handle) #10
  ret void
}


!llvm.module.flags = !{!0, !1, !2, !3}

!0 = !{i32 1, !"wchar_size", i32 4}
!1 = !{i32 8, !"PIC Level", i32 2}
!2 = !{i32 7, !"PIE Level", i32 2}
!3 = !{i32 7, !"uwtable", i32 2}
!4 = distinct !{!4, !5}
!5 = !{!"llvm.loop.mustprogress"}
!6 = !{!7, !8, i64 8}
!7 = !{!"_ZTS7timeval", !8, i64 0, !8, i64 8}
!8 = !{!"long", !9, i64 0}
!9 = !{!"omnipotent char", !10, i64 0}
!10 = !{!"Simple C++ TBAA"}
!11 = !{!7, !8, i64 0}
!12 = !{!13, !8, i64 0}
!13 = !{!"_ZTS8timespec", !8, i64 0, !8, i64 8}
!14 = !{!13, !8, i64 8}
